; Function Attrs: mustprogress uwtable
define void @_ZN6icu_7714Transliterator16registerInstanceEPS0_(ptr noundef %0) local_unnamed_addr #1 align 2 personality ptr @__gxx_personality_v0 {
  %2 = alloca i32, align 4
  %3 = alloca i32, align 4
  tail call void @umtx_lock_77(ptr noundef nonnull @_ZL13registryMutex)
  call void @llvm.lifetime.start.p0(i64 4, ptr nonnull %3) #21
  store i32 0, ptr %3, align 4, !tbaa !13
  %4 = load ptr, ptr @_ZL8registry, align 8, !tbaa !49
  %.not = icmp eq ptr %4, null
  br i1 %.not, label %5, label %8

5:                                                ; preds = %1
  %6 = invoke noundef signext i8 @_ZN6icu_7714Transliterator18initializeRegistryER10UErrorCode(ptr noundef nonnull align 4 dereferenceable(4) %3)
          to label %7 unwind label %10

7:                                                ; preds = %5
  %.not2 = icmp eq i8 %6, 0
  br i1 %.not2, label %15, label %._crit_edge

._crit_edge:                                      ; preds = %7
  %.pre = load ptr, ptr @_ZL8registry, align 8, !tbaa !49
  br label %8

8:                                                ; preds = %._crit_edge, %1
  %9 = phi ptr [ %.pre, %._crit_edge ], [ %4, %1 ]
  call void @llvm.lifetime.start.p0(i64 4, ptr nonnull %2) #21
  store i32 0, ptr %2, align 4, !tbaa !13
  invoke void @_ZN6icu_7722TransliteratorRegistry3putEPNS_14TransliteratorEaR10UErrorCode(ptr noundef nonnull align 8 dereferenceable(312) %9, ptr noundef %0, i8 noundef signext 1, ptr noundef nonnull align 4 dereferenceable(4) %2)
          to label %_ZN6icu_7714Transliterator17_registerInstanceEPS0_.exit unwind label %10

_ZN6icu_7714Transliterator17_registerInstanceEPS0_.exit: ; preds = %8
  call void @llvm.lifetime.end.p0(i64 4, ptr nonnull %2) #21
  br label %15

10:                                               ; preds = %8, %5
  %11 = landingpad { ptr, i32 }
          cleanup
  call void @llvm.lifetime.end.p0(i64 4, ptr nonnull %3) #21
  invoke void @umtx_unlock_77(ptr noundef nonnull @_ZL13registryMutex)
          to label %_ZN6icu_775MutexD2Ev.exit unwind label %12

12:                                               ; preds = %10
  %13 = landingpad { ptr, i32 }
          catch ptr null
  %14 = extractvalue { ptr, i32 } %13, 0
  call void @__clang_call_terminate(ptr %14) #23
  unreachable

_ZN6icu_775MutexD2Ev.exit:                        ; preds = %10
  resume { ptr, i32 } %11

15:                                               ; preds = %_ZN6icu_7714Transliterator17_registerInstanceEPS0_.exit, %7
  call void @llvm.lifetime.end.p0(i64 4, ptr nonnull %3) #21
  invoke void @umtx_unlock_77(ptr noundef nonnull @_ZL13registryMutex)
          to label %_ZN6icu_775MutexD2Ev.exit3 unwind label %16

16:                                               ; preds = %15
  %17 = landingpad { ptr, i32 }
          catch ptr null
  %18 = extractvalue { ptr, i32 } %17, 0
  call void @__clang_call_terminate(ptr %18) #23
  unreachable

_ZN6icu_775MutexD2Ev.exit3:                       ; preds = %15
  ret void
}